; ModuleID = 'bench/folly/original/Sse.ll'
source_filename = "bench/folly/original/Sse.ll"
target datalayout = "e-m:e-p270:32:32-p271:32:32-p272:64:64-i64:64-i128:128-f80:128-n8:16:32:64-S128"
target triple = "x86_64-pc-linux-gnu"

; Function Attrs: mustprogress nofree norecurse nosync nounwind willreturn memory(argmem: read) uwtable
define noundef <2 x i64> @_ZN5folly6detail21_mm_loadu_si128_nosanEPKDv2_x(ptr noundef readonly captures(none) %0) local_unnamed_addr #0 {
  %2 = load <2 x i64>, ptr %0, align 1, !tbaa !7
  ret <2 x i64> %2
}

; Function Attrs: mustprogress nofree norecurse nosync nounwind willreturn memory(argmem: read) uwtable
define noundef <2 x i64> @_ZN5folly6detail20_mm_load_si128_nosanEPKDv2_x(ptr noundef readonly captures(none) %0) local_unnamed_addr #0 {
  %2 = load <2 x i64>, ptr %0, align 16, !tbaa !7
  ret <2 x i64> %2
}


!llvm.module.flags = !{!0, !1, !2, !3, !4, !5, !6}

!0 = !{i32 7, !"Dwarf Version", i32 5}
!1 = !{i32 2, !"Debug Info Version", i32 3}
!2 = !{i32 1, !"wchar_size", i32 4}
!3 = !{i32 7, !"openmp", i32 51}
!4 = !{i32 8, !"PIC Level", i32 2}
!5 = !{i32 7, !"uwtable", i32 2}
!6 = !{i32 7, !"debug-info-assignment-tracking", i1 true}
!7 = !{!8, !8, i64 0}
!8 = !{!"omnipotent char", !9, i64 0}
!9 = !{!"Simple C++ TBAA"}
